target datalayout = "e-m:e-p270:32:32-p271:32:32-p272:64:64-i64:64-i128:128-f80:128-n8:16:32:64-S128"
target triple = "x86_64-pc-linux-gnu"

%"class.glslang::TOutputTraverser" = type <{ %"class.glslang::TIntermTraverser", ptr, i32, [4 x i8] }>
%"class.glslang::TIntermTraverser" = type { ptr, i8, i8, i8, i8, i32, i32, %"class.glslang::TVector" }
%"class.glslang::TVector" = type { %"class.std::vector" }
%"class.std::vector" = type { %"struct.std::_Vector_base" }
%"struct.std::_Vector_base" = type { %"struct.std::_Vector_base<TIntermNode *, glslang::pool_allocator<TIntermNode *>>::_Vector_impl" }
%"struct.std::_Vector_base<TIntermNode *, glslang::pool_allocator<TIntermNode *>>::_Vector_impl" = type { %"class.glslang::pool_allocator", %"struct.std::_Vector_base<TIntermNode *, glslang::pool_allocator<TIntermNode *>>::_Vector_impl_data" }
%"class.glslang::pool_allocator" = type { ptr }
%"struct.std::_Vector_base<TIntermNode *, glslang::pool_allocator<TIntermNode *>>::_Vector_impl_data" = type { ptr, ptr, ptr }
%class.TInfoSink = type { %"class.glslang::TInfoSinkBase", %"class.glslang::TInfoSinkBase" }
%"class.glslang::TInfoSinkBase" = type { %"class.std::__cxx11::basic_string", i32, ptr }
%"class.std::__cxx11::basic_string" = type { %"struct.std::__cxx11::basic_string<char>::_Alloc_hider", i64, %union.anon }
%"struct.std::__cxx11::basic_string<char>::_Alloc_hider" = type { ptr }
%union.anon = type { i64, [8 x i8] }
%"struct.glslang::TSourceLoc" = type { ptr, i32, i32, i32 }
%class.TIntermNode = type { ptr, %"struct.glslang::TSourceLoc" }
%"class.glslang::TIntermLoop" = type <{ %class.TIntermNode, ptr, ptr, ptr, i8, i8, i8, i8, i32, i32, i32, i32, i32, i32, [4 x i8] }>

@.str.54 = private unnamed_addr constant [2 x i8] c"\0A\00", align 1
@.str.774 = private unnamed_addr constant [21 x i8] c"Loop with condition \00", align 1
@.str.775 = private unnamed_addr constant [5 x i8] c"not \00", align 1
@.str.776 = private unnamed_addr constant [13 x i8] c"tested first\00", align 1
@.str.777 = private unnamed_addr constant [9 x i8] c": Unroll\00", align 1
@.str.778 = private unnamed_addr constant [13 x i8] c": DontUnroll\00", align 1
@.str.779 = private unnamed_addr constant [14 x i8] c": Dependency \00", align 1
@.str.780 = private unnamed_addr constant [16 x i8] c"Loop Condition\0A\00", align 1
@.str.781 = private unnamed_addr constant [19 x i8] c"No loop condition\0A\00", align 1
@.str.782 = private unnamed_addr constant [11 x i8] c"Loop Body\0A\00", align 1
@.str.783 = private unnamed_addr constant [14 x i8] c"No loop body\0A\00", align 1
@.str.784 = private unnamed_addr constant [26 x i8] c"Loop Terminal Expression\0A\00", align 1

; Function Attrs: mustprogress nounwind uwtable
define linkonce_odr noundef ptr @_ZNK7glslang11TIntermLoop11getTerminalEv(ptr noundef nonnull align 8 dereferenceable(84) %0) #0 comdat align 2 {
  %2 = alloca ptr, align 8
  store ptr %0, ptr %2, align 8
  %3 = load ptr, ptr %2, align 8
  %4 = getelementptr inbounds %"class.glslang::TIntermLoop", ptr %3, i32 0, i32 3
  %5 = load ptr, ptr %4, align 8
  ret ptr %5
}

; Function Attrs: mustprogress nounwind uwtable
define linkonce_odr noundef ptr @_ZNK7glslang11TIntermLoop7getBodyEv(ptr noundef nonnull align 8 dereferenceable(84) %0) #0 comdat align 2 {
  %2 = alloca ptr, align 8
  store ptr %0, ptr %2, align 8
  %3 = load ptr, ptr %2, align 8
  %4 = getelementptr inbounds %"class.glslang::TIntermLoop", ptr %3, i32 0, i32 1
  %5 = load ptr, ptr %4, align 8
  ret ptr %5
}

; Function Attrs: mustprogress nounwind uwtable
define linkonce_odr noundef ptr @_ZNK7glslang11TIntermLoop7getTestEv(ptr noundef nonnull align 8 dereferenceable(84) %0) #0 comdat align 2 {
  %2 = alloca ptr, align 8
  store ptr %0, ptr %2, align 8
  %3 = load ptr, ptr %2, align 8
  %4 = getelementptr inbounds %"class.glslang::TIntermLoop", ptr %3, i32 0, i32 2
  %5 = load ptr, ptr %4, align 8
  ret ptr %5
}

; Function Attrs: mustprogress nounwind uwtable
define linkonce_odr noundef i32 @_ZNK7glslang11TIntermLoop17getLoopDependencyEv(ptr noundef nonnull align 8 dereferenceable(84) %0) #0 comdat align 2 {
  %2 = alloca ptr, align 8
  store ptr %0, ptr %2, align 8
  %3 = load ptr, ptr %2, align 8
  %4 = getelementptr inbounds %"class.glslang::TIntermLoop", ptr %3, i32 0, i32 8
  %5 = load i32, ptr %4, align 4
  ret i32 %5
}

; Function Attrs: mustprogress nounwind uwtable
define linkonce_odr noundef zeroext i1 @_ZNK7glslang11TIntermLoop13getDontUnrollEv(ptr noundef nonnull align 8 dereferenceable(84) %0) #0 comdat align 2 {
  %2 = alloca ptr, align 8
  store ptr %0, ptr %2, align 8
  %3 = load ptr, ptr %2, align 8
  %4 = getelementptr inbounds %"class.glslang::TIntermLoop", ptr %3, i32 0, i32 6
  %5 = load i8, ptr %4, align 2
  %6 = trunc i8 %5 to i1
  ret i1 %6
}

; Function Attrs: mustprogress nounwind uwtable
define linkonce_odr noundef zeroext i1 @_ZNK7glslang11TIntermLoop9getUnrollEv(ptr noundef nonnull align 8 dereferenceable(84) %0) #0 comdat align 2 {
  %2 = alloca ptr, align 8
  store ptr %0, ptr %2, align 8
  %3 = load ptr, ptr %2, align 8
  %4 = getelementptr inbounds %"class.glslang::TIntermLoop", ptr %3, i32 0, i32 5
  %5 = load i8, ptr %4, align 1
  %6 = trunc i8 %5 to i1
  ret i1 %6
}

; Function Attrs: mustprogress nounwind uwtable
define linkonce_odr noundef zeroext i1 @_ZNK7glslang11TIntermLoop9testFirstEv(ptr noundef nonnull align 8 dereferenceable(84) %0) #0 comdat align 2 {
  %2 = alloca ptr, align 8
  store ptr %0, ptr %2, align 8
  %3 = load ptr, ptr %2, align 8
  %4 = getelementptr inbounds %"class.glslang::TIntermLoop", ptr %3, i32 0, i32 4
  %5 = load i8, ptr %4, align 8
  %6 = trunc i8 %5 to i1
  ret i1 %6
}

; Function Attrs: mustprogress nounwind uwtable
define linkonce_odr noundef nonnull align 8 dereferenceable(48) ptr @_ZN7glslang13TInfoSinkBaselsEPKc(ptr noundef nonnull align 8 dereferenceable(48) %0, ptr noundef %1) #0 comdat align 2 {
  %3 = alloca ptr, align 8
  %4 = alloca ptr, align 8
  store ptr %0, ptr %3, align 8
  store ptr %1, ptr %4, align 8
  %5 = load ptr, ptr %3, align 8
  %6 = load ptr, ptr %4, align 8
  call void @_ZN7glslang13TInfoSinkBase6appendEPKc(ptr noundef nonnull align 8 dereferenceable(48) %5, ptr noundef %6)
  ret ptr %5
}

; Function Attrs: mustprogress nounwind uwtable
define noundef zeroext i1 @_ZN7glslang16TOutputTraverser9visitLoopENS_6TVisitEPNS_11TIntermLoopE(ptr noundef nonnull align 8 dereferenceable(68) %0, i32 noundef %1, ptr noundef %2) unnamed_addr #0 align 2 {
  %4 = alloca ptr, align 8
  %5 = alloca i32, align 4
  %6 = alloca ptr, align 8
  %7 = alloca ptr, align 8
  store ptr %0, ptr %4, align 8
  store i32 %1, ptr %5, align 4
  store ptr %2, ptr %6, align 8
  %8 = load ptr, ptr %4, align 8
  %9 = getelementptr inbounds %"class.glslang::TOutputTraverser", ptr %8, i32 0, i32 1
  %10 = load ptr, ptr %9, align 8
  store ptr %10, ptr %7, align 8
  %11 = load ptr, ptr %7, align 8
  %12 = load ptr, ptr %6, align 8
  %13 = getelementptr inbounds %"class.glslang::TIntermTraverser", ptr %8, i32 0, i32 5
  %14 = load i32, ptr %13, align 4
  call void @_ZN7glslangL14OutputTreeTextER9TInfoSinkPK11TIntermNodei(ptr noundef nonnull align 8 dereferenceable(96) %11, ptr noundef %12, i32 noundef %14)
  %15 = load ptr, ptr %7, align 8
  %16 = getelementptr inbounds %class.TInfoSink, ptr %15, i32 0, i32 1
  %17 = call noundef nonnull align 8 dereferenceable(48) ptr @_ZN7glslang13TInfoSinkBaselsEPKc(ptr noundef nonnull align 8 dereferenceable(48) %16, ptr noundef @.str.774)
  %18 = load ptr, ptr %6, align 8
  %19 = call noundef zeroext i1 @_ZNK7glslang11TIntermLoop9testFirstEv(ptr noundef nonnull align 8 dereferenceable(84) %18)
  br i1 %19, label %24, label %20

20:                                               ; preds = %3
  %21 = load ptr, ptr %7, align 8
  %22 = getelementptr inbounds %class.TInfoSink, ptr %21, i32 0, i32 1
  %23 = call noundef nonnull align 8 dereferenceable(48) ptr @_ZN7glslang13TInfoSinkBaselsEPKc(ptr noundef nonnull align 8 dereferenceable(48) %22, ptr noundef @.str.775)
  br label %24

24:                                               ; preds = %20, %3
  %25 = load ptr, ptr %7, align 8
  %26 = getelementptr inbounds %class.TInfoSink, ptr %25, i32 0, i32 1
  %27 = call noundef nonnull align 8 dereferenceable(48) ptr @_ZN7glslang13TInfoSinkBaselsEPKc(ptr noundef nonnull align 8 dereferenceable(48) %26, ptr noundef @.str.776)
  %28 = load ptr, ptr %6, align 8
  %29 = call noundef zeroext i1 @_ZNK7glslang11TIntermLoop9getUnrollEv(ptr noundef nonnull align 8 dereferenceable(84) %28)
  br i1 %29, label %30, label %34

30:                                               ; preds = %24
  %31 = load ptr, ptr %7, align 8
  %32 = getelementptr inbounds %class.TInfoSink, ptr %31, i32 0, i32 1
  %33 = call noundef nonnull align 8 dereferenceable(48) ptr @_ZN7glslang13TInfoSinkBaselsEPKc(ptr noundef nonnull align 8 dereferenceable(48) %32, ptr noundef @.str.777)
  br label %34

34:                                               ; preds = %30, %24
  %35 = load ptr, ptr %6, align 8
  %36 = call noundef zeroext i1 @_ZNK7glslang11TIntermLoop13getDontUnrollEv(ptr noundef nonnull align 8 dereferenceable(84) %35)
  br i1 %36, label %37, label %41

37:                                               ; preds = %34
  %38 = load ptr, ptr %7, align 8
  %39 = getelementptr inbounds %class.TInfoSink, ptr %38, i32 0, i32 1
  %40 = call noundef nonnull align 8 dereferenceable(48) ptr @_ZN7glslang13TInfoSinkBaselsEPKc(ptr noundef nonnull align 8 dereferenceable(48) %39, ptr noundef @.str.778)
  br label %41

41:                                               ; preds = %37, %34
  %42 = load ptr, ptr %6, align 8
  %43 = call noundef i32 @_ZNK7glslang11TIntermLoop17getLoopDependencyEv(ptr noundef nonnull align 8 dereferenceable(84) %42)
  %44 = icmp ne i32 %43, 0
  br i1 %44, label %45, label %54

45:                                               ; preds = %41
  %46 = load ptr, ptr %7, align 8
  %47 = getelementptr inbounds %class.TInfoSink, ptr %46, i32 0, i32 1
  %48 = call noundef nonnull align 8 dereferenceable(48) ptr @_ZN7glslang13TInfoSinkBaselsEPKc(ptr noundef nonnull align 8 dereferenceable(48) %47, ptr noundef @.str.779)
  %49 = load ptr, ptr %7, align 8
  %50 = getelementptr inbounds %class.TInfoSink, ptr %49, i32 0, i32 1
  %51 = load ptr, ptr %6, align 8
  %52 = call noundef i32 @_ZNK7glslang11TIntermLoop17getLoopDependencyEv(ptr noundef nonnull align 8 dereferenceable(84) %51)
  %53 = call noundef nonnull align 8 dereferenceable(48) ptr @_ZN7glslang13TInfoSinkBaselsEi(ptr noundef nonnull align 8 dereferenceable(48) %50, i32 noundef %52)
  br label %54

54:                                               ; preds = %45, %41
  %55 = load ptr, ptr %7, align 8
  %56 = getelementptr inbounds %class.TInfoSink, ptr %55, i32 0, i32 1
  %57 = call noundef nonnull align 8 dereferenceable(48) ptr @_ZN7glslang13TInfoSinkBaselsEPKc(ptr noundef nonnull align 8 dereferenceable(48) %56, ptr noundef @.str.54)
  %58 = getelementptr inbounds %"class.glslang::TIntermTraverser", ptr %8, i32 0, i32 5
  %59 = load i32, ptr %58, align 4
  %60 = add nsw i32 %59, 1
  store i32 %60, ptr %58, align 4
  %61 = getelementptr inbounds %"class.glslang::TOutputTraverser", ptr %8, i32 0, i32 1
  %62 = load ptr, ptr %61, align 8
  %63 = load ptr, ptr %6, align 8
  %64 = getelementptr inbounds %"class.glslang::TIntermTraverser", ptr %8, i32 0, i32 5
  %65 = load i32, ptr %64, align 4
  call void @_ZN7glslangL14OutputTreeTextER9TInfoSinkPK11TIntermNodei(ptr noundef nonnull align 8 dereferenceable(96) %62, ptr noundef %63, i32 noundef %65)
  %66 = load ptr, ptr %6, align 8
  %67 = call noundef ptr @_ZNK7glslang11TIntermLoop7getTestEv(ptr noundef nonnull align 8 dereferenceable(84) %66)
  %68 = icmp ne ptr %67, null
  br i1 %68, label %69, label %78

69:                                               ; preds = %54
  %70 = load ptr, ptr %7, align 8
  %71 = getelementptr inbounds %class.TInfoSink, ptr %70, i32 0, i32 1
  %72 = call noundef nonnull align 8 dereferenceable(48) ptr @_ZN7glslang13TInfoSinkBaselsEPKc(ptr noundef nonnull align 8 dereferenceable(48) %71, ptr noundef @.str.780)
  %73 = load ptr, ptr %6, align 8
  %74 = call noundef ptr @_ZNK7glslang11TIntermLoop7getTestEv(ptr noundef nonnull align 8 dereferenceable(84) %73)
  %75 = load ptr, ptr %74, align 8
  %76 = getelementptr inbounds ptr, ptr %75, i64 2
  %77 = load ptr, ptr %76, align 8
  call void %77(ptr noundef nonnull align 8 dereferenceable(32) %74, ptr noundef %8)
  br label %82

78:                                               ; preds = %54
  %79 = load ptr, ptr %7, align 8
  %80 = getelementptr inbounds %class.TInfoSink, ptr %79, i32 0, i32 1
  %81 = call noundef nonnull align 8 dereferenceable(48) ptr @_ZN7glslang13TInfoSinkBaselsEPKc(ptr noundef nonnull align 8 dereferenceable(48) %80, ptr noundef @.str.781)
  br label %82

82:                                               ; preds = %78, %69
  %83 = getelementptr inbounds %"class.glslang::TOutputTraverser", ptr %8, i32 0, i32 1
  %84 = load ptr, ptr %83, align 8
  %85 = load ptr, ptr %6, align 8
  %86 = getelementptr inbounds %"class.glslang::TIntermTraverser", ptr %8, i32 0, i32 5
  %87 = load i32, ptr %86, align 4
  call void @_ZN7glslangL14OutputTreeTextER9TInfoSinkPK11TIntermNodei(ptr noundef nonnull align 8 dereferenceable(96) %84, ptr noundef %85, i32 noundef %87)
  %88 = load ptr, ptr %6, align 8
  %89 = call noundef ptr @_ZNK7glslang11TIntermLoop7getBodyEv(ptr noundef nonnull align 8 dereferenceable(84) %88)
  %90 = icmp ne ptr %89, null
  br i1 %90, label %91, label %100

91:                                               ; preds = %82
  %92 = load ptr, ptr %7, align 8
  %93 = getelementptr inbounds %class.TInfoSink, ptr %92, i32 0, i32 1
  %94 = call noundef nonnull align 8 dereferenceable(48) ptr @_ZN7glslang13TInfoSinkBaselsEPKc(ptr noundef nonnull align 8 dereferenceable(48) %93, ptr noundef @.str.782)
  %95 = load ptr, ptr %6, align 8
  %96 = call noundef ptr @_ZNK7glslang11TIntermLoop7getBodyEv(ptr noundef nonnull align 8 dereferenceable(84) %95)
  %97 = load ptr, ptr %96, align 8
  %98 = getelementptr inbounds ptr, ptr %97, i64 2
  %99 = load ptr, ptr %98, align 8
  call void %99(ptr noundef nonnull align 8 dereferenceable(32) %96, ptr noundef %8)
  br label %104

100:                                              ; preds = %82
  %101 = load ptr, ptr %7, align 8
  %102 = getelementptr inbounds %class.TInfoSink, ptr %101, i32 0, i32 1
  %103 = call noundef nonnull align 8 dereferenceable(48) ptr @_ZN7glslang13TInfoSinkBaselsEPKc(ptr noundef nonnull align 8 dereferenceable(48) %102, ptr noundef @.str.783)
  br label %104

104:                                              ; preds = %100, %91
  %105 = load ptr, ptr %6, align 8
  %106 = call noundef ptr @_ZNK7glslang11TIntermLoop11getTerminalEv(ptr noundef nonnull align 8 dereferenceable(84) %105)
  %107 = icmp ne ptr %106, null
  br i1 %107, label %108, label %122

108:                                              ; preds = %104
  %109 = getelementptr inbounds %"class.glslang::TOutputTraverser", ptr %8, i32 0, i32 1
  %110 = load ptr, ptr %109, align 8
  %111 = load ptr, ptr %6, align 8
  %112 = getelementptr inbounds %"class.glslang::TIntermTraverser", ptr %8, i32 0, i32 5
  %113 = load i32, ptr %112, align 4
  call void @_ZN7glslangL14OutputTreeTextER9TInfoSinkPK11TIntermNodei(ptr noundef nonnull align 8 dereferenceable(96) %110, ptr noundef %111, i32 noundef %113)
  %114 = load ptr, ptr %7, align 8
  %115 = getelementptr inbounds %class.TInfoSink, ptr %114, i32 0, i32 1
  %116 = call noundef nonnull align 8 dereferenceable(48) ptr @_ZN7glslang13TInfoSinkBaselsEPKc(ptr noundef nonnull align 8 dereferenceable(48) %115, ptr noundef @.str.784)
  %117 = load ptr, ptr %6, align 8
  %118 = call noundef ptr @_ZNK7glslang11TIntermLoop11getTerminalEv(ptr noundef nonnull align 8 dereferenceable(84) %117)
  %119 = load ptr, ptr %118, align 8
  %120 = getelementptr inbounds ptr, ptr %119, i64 2
  %121 = load ptr, ptr %120, align 8
  call void %121(ptr noundef nonnull align 8 dereferenceable(32) %118, ptr noundef %8)
  br label %122

122:                                              ; preds = %108, %104
  %123 = getelementptr inbounds %"class.glslang::TIntermTraverser", ptr %8, i32 0, i32 5
  %124 = load i32, ptr %123, align 4
  %125 = add nsw i32 %124, -1
  store i32 %125, ptr %123, align 4
  ret i1 false
}