; Function Attrs: mustprogress nounwind uwtable
define noundef zeroext i1 @_ZN7glslang16TOutputTraverser9visitLoopENS_6TVisitEPNS_11TIntermLoopE(ptr noundef nonnull align 8 dereferenceable(68) %0, i32 %1, ptr noundef %2) unnamed_addr #0 align 2 {
  %4 = getelementptr inbounds nuw i8, ptr %0, i64 56
  %5 = load ptr, ptr %4, align 8
  %6 = getelementptr inbounds nuw i8, ptr %0, i64 12
  %7 = load i32, ptr %6, align 4
  tail call fastcc void @_ZN7glslangL14OutputTreeTextER9TInfoSinkPK11TIntermNodei(ptr noundef nonnull align 8 dereferenceable(96) %5, ptr noundef %2, i32 noundef %7)
  %8 = getelementptr inbounds nuw i8, ptr %5, i64 48
  tail call void @_ZN7glslang13TInfoSinkBase6appendEPKc(ptr noundef nonnull align 8 dereferenceable(48) %8, ptr noundef nonnull @.str.774) #14
  %9 = getelementptr inbounds nuw i8, ptr %2, i64 56
  %10 = load i8, ptr %9, align 8
  %11 = trunc i8 %10 to i1
  br i1 %11, label %13, label %12

12:                                               ; preds = %3
  tail call void @_ZN7glslang13TInfoSinkBase6appendEPKc(ptr noundef nonnull align 8 dereferenceable(48) %8, ptr noundef nonnull @.str.775) #14
  br label %13

13:                                               ; preds = %12, %3
  tail call void @_ZN7glslang13TInfoSinkBase6appendEPKc(ptr noundef nonnull align 8 dereferenceable(48) %8, ptr noundef nonnull @.str.776) #14
  %14 = getelementptr inbounds nuw i8, ptr %2, i64 57
  %15 = load i8, ptr %14, align 1
  %16 = trunc i8 %15 to i1
  br i1 %16, label %17, label %18

17:                                               ; preds = %13
  tail call void @_ZN7glslang13TInfoSinkBase6appendEPKc(ptr noundef nonnull align 8 dereferenceable(48) %8, ptr noundef nonnull @.str.777) #14
  br label %18

18:                                               ; preds = %17, %13
  %19 = getelementptr inbounds nuw i8, ptr %2, i64 58
  %20 = load i8, ptr %19, align 2
  %21 = trunc i8 %20 to i1
  br i1 %21, label %22, label %23

22:                                               ; preds = %18
  tail call void @_ZN7glslang13TInfoSinkBase6appendEPKc(ptr noundef nonnull align 8 dereferenceable(48) %8, ptr noundef nonnull @.str.778) #14
  br label %23

23:                                               ; preds = %22, %18
  %24 = getelementptr inbounds nuw i8, ptr %2, i64 60
  %25 = load i32, ptr %24, align 4
  %.not = icmp eq i32 %25, 0
  br i1 %.not, label %29, label %26

26:                                               ; preds = %23
  tail call void @_ZN7glslang13TInfoSinkBase6appendEPKc(ptr noundef nonnull align 8 dereferenceable(48) %8, ptr noundef nonnull @.str.779) #14
  %27 = load i32, ptr %24, align 4
  %28 = tail call noundef nonnull align 8 dereferenceable(48) ptr @_ZN7glslang13TInfoSinkBaselsEi(ptr noundef nonnull align 8 dereferenceable(48) %8, i32 noundef %27)
  br label %29

29:                                               ; preds = %26, %23
  tail call void @_ZN7glslang13TInfoSinkBase6appendEPKc(ptr noundef nonnull align 8 dereferenceable(48) %8, ptr noundef nonnull @.str.54) #14
  %30 = load i32, ptr %6, align 4
  %31 = add nsw i32 %30, 1
  store i32 %31, ptr %6, align 4
  %32 = load ptr, ptr %4, align 8
  tail call fastcc void @_ZN7glslangL14OutputTreeTextER9TInfoSinkPK11TIntermNodei(ptr noundef nonnull align 8 dereferenceable(96) %32, ptr noundef nonnull %2, i32 noundef %31)
  %33 = getelementptr inbounds nuw i8, ptr %2, i64 40
  %34 = load ptr, ptr %33, align 8
  %.not30 = icmp eq ptr %34, null
  br i1 %.not30, label %40, label %35

35:                                               ; preds = %29
  tail call void @_ZN7glslang13TInfoSinkBase6appendEPKc(ptr noundef nonnull align 8 dereferenceable(48) %8, ptr noundef nonnull @.str.780) #14
  %36 = load ptr, ptr %33, align 8
  %37 = load ptr, ptr %36, align 8
  %38 = getelementptr inbounds nuw i8, ptr %37, i64 16
  %39 = load ptr, ptr %38, align 8
  tail call void %39(ptr noundef nonnull align 8 dereferenceable(32) %36, ptr noundef nonnull %0) #14
  br label %41

40:                                               ; preds = %29
  tail call void @_ZN7glslang13TInfoSinkBase6appendEPKc(ptr noundef nonnull align 8 dereferenceable(48) %8, ptr noundef nonnull @.str.781) #14
  br label %41

41:                                               ; preds = %40, %35
  %42 = load ptr, ptr %4, align 8
  %43 = load i32, ptr %6, align 4
  tail call fastcc void @_ZN7glslangL14OutputTreeTextER9TInfoSinkPK11TIntermNodei(ptr noundef nonnull align 8 dereferenceable(96) %42, ptr noundef nonnull %2, i32 noundef %43)
  %44 = getelementptr inbounds nuw i8, ptr %2, i64 32
  %45 = load ptr, ptr %44, align 8
  %.not31 = icmp eq ptr %45, null
  br i1 %.not31, label %51, label %46

46:                                               ; preds = %41
  tail call void @_ZN7glslang13TInfoSinkBase6appendEPKc(ptr noundef nonnull align 8 dereferenceable(48) %8, ptr noundef nonnull @.str.782) #14
  %47 = load ptr, ptr %44, align 8
  %48 = load ptr, ptr %47, align 8
  %49 = getelementptr inbounds nuw i8, ptr %48, i64 16
  %50 = load ptr, ptr %49, align 8
  tail call void %50(ptr noundef nonnull align 8 dereferenceable(32) %47, ptr noundef nonnull %0) #14
  br label %52

51:                                               ; preds = %41
  tail call void @_ZN7glslang13TInfoSinkBase6appendEPKc(ptr noundef nonnull align 8 dereferenceable(48) %8, ptr noundef nonnull @.str.783) #14
  br label %52

52:                                               ; preds = %51, %46
  %53 = getelementptr inbounds nuw i8, ptr %2, i64 48
  %54 = load ptr, ptr %53, align 8
  %.not32 = icmp eq ptr %54, null
  br i1 %.not32, label %62, label %55

55:                                               ; preds = %52
  %56 = load ptr, ptr %4, align 8
  %57 = load i32, ptr %6, align 4
  tail call fastcc void @_ZN7glslangL14OutputTreeTextER9TInfoSinkPK11TIntermNodei(ptr noundef nonnull align 8 dereferenceable(96) %56, ptr noundef nonnull %2, i32 noundef %57)
  tail call void @_ZN7glslang13TInfoSinkBase6appendEPKc(ptr noundef nonnull align 8 dereferenceable(48) %8, ptr noundef nonnull @.str.784) #14
  %58 = load ptr, ptr %53, align 8
  %59 = load ptr, ptr %58, align 8
  %60 = getelementptr inbounds nuw i8, ptr %59, i64 16
  %61 = load ptr, ptr %60, align 8
  tail call void %61(ptr noundef nonnull align 8 dereferenceable(32) %58, ptr noundef nonnull %0) #14
  br label %62

62:                                               ; preds = %55, %52
  %63 = load i32, ptr %6, align 4
  %64 = add nsw i32 %63, -1
  store i32 %64, ptr %6, align 4
  ret i1 false
}